target datalayout = "e-m:e-p270:32:32-p271:32:32-p272:64:64-i64:64-i128:128-f80:128-n8:16:32:64-S128"
target triple = "x86_64-pc-linux-gnu"

%struct.XLogRecordBuffer = type { i64, i64, ptr }
%struct.LogicalDecodingContext = type { ptr, ptr, ptr, ptr, ptr, i8, %struct.OutputPluginCallbacks, %struct.OutputPluginOptions, ptr, ptr, ptr, ptr, ptr, ptr, ptr, i8, i8, i8, i8, i8, i64, i32, i8, i8 }
%struct.OutputPluginCallbacks = type { ptr, ptr, ptr, ptr, ptr, ptr, ptr, ptr, ptr, ptr, ptr, ptr, ptr, ptr, ptr, ptr, ptr, ptr, ptr, ptr, ptr }
%struct.OutputPluginOptions = type { i32, i8 }
%struct.XLogReaderState = type { %struct.XLogReaderRoutine, i64, ptr, i64, i64, i64, i64, i64, i64, i64, i64, ptr, ptr, i64, i8, ptr, ptr, ptr, ptr, ptr, i32, %struct.WALSegmentContext, %struct.WALOpenSegment, i32, i64, i32, i64, i32, i64, i32, ptr, i32, ptr, i8, i8 }
%struct.XLogReaderRoutine = type { ptr, ptr, ptr }
%struct.WALSegmentContext = type { [1024 x i8], i32 }
%struct.WALOpenSegment = type { i32, i64, i32 }
%struct.DecodedXLogRecord = type { i64, i8, ptr, i64, i64, %struct.XLogRecord, i16, i32, ptr, i32, i32, [0 x %struct.DecodedBkpBlock] }
%struct.XLogRecord = type { i32, i32, i64, i8, i8, i32 }
%struct.DecodedBkpBlock = type { i8, %struct.RelFileLocator, i32, i32, i32, i8, i8, i8, ptr, i16, i16, i16, i8, i8, ptr, i16, i16 }
%struct.RelFileLocator = type { i32, i32, i32 }
%struct.xl_parameter_change = type { i32, i32, i32, i32, i32, i32, i8, i8 }

@.str = private unnamed_addr constant [77 x i8] c"logical decoding on standby requires \22wal_level\22 >= \22logical\22 on the primary\00", align 1
@.str.1 = private unnamed_addr constant [9 x i8] c"decode.c\00", align 1
@__func__.xlog_decode = private unnamed_addr constant [12 x i8] c"xlog_decode\00", align 1
@.str.2 = private unnamed_addr constant [38 x i8] c"unexpected RM_XLOG_ID record type: %u\00", align 1

; Function Attrs: nounwind uwtable
define dso_local void @xlog_decode(ptr noundef %0, ptr noundef %1) #0 {
  %3 = alloca ptr, align 8
  %4 = alloca ptr, align 8
  %5 = alloca ptr, align 8
  %6 = alloca i8, align 1
  %7 = alloca ptr, align 8
  store ptr %0, ptr %3, align 8
  store ptr %1, ptr %4, align 8
  call void @llvm.lifetime.start.p0(i64 8, ptr %5) #8
  %8 = load ptr, ptr %3, align 8
  %9 = getelementptr inbounds nuw %struct.LogicalDecodingContext, ptr %8, i32 0, i32 4
  %10 = load ptr, ptr %9, align 8
  store ptr %10, ptr %5, align 8
  call void @llvm.lifetime.start.p0(i64 1, ptr %6) #8
  %11 = load ptr, ptr %4, align 8
  %12 = getelementptr inbounds nuw %struct.XLogRecordBuffer, ptr %11, i32 0, i32 2
  %13 = load ptr, ptr %12, align 8
  %14 = getelementptr inbounds nuw %struct.XLogReaderState, ptr %13, i32 0, i32 11
  %15 = load ptr, ptr %14, align 8
  %16 = getelementptr inbounds nuw %struct.DecodedXLogRecord, ptr %15, i32 0, i32 5
  %17 = getelementptr inbounds nuw %struct.XLogRecord, ptr %16, i32 0, i32 3
  %18 = load i8, ptr %17, align 8
  %19 = zext i8 %18 to i32
  %20 = and i32 %19, -16
  %21 = trunc i32 %20 to i8
  store i8 %21, ptr %6, align 1
  %22 = load ptr, ptr %3, align 8
  %23 = getelementptr inbounds nuw %struct.LogicalDecodingContext, ptr %22, i32 0, i32 3
  %24 = load ptr, ptr %23, align 8
  %25 = load ptr, ptr %4, align 8
  %26 = getelementptr inbounds nuw %struct.XLogRecordBuffer, ptr %25, i32 0, i32 2
  %27 = load ptr, ptr %26, align 8
  %28 = getelementptr inbounds nuw %struct.XLogReaderState, ptr %27, i32 0, i32 11
  %29 = load ptr, ptr %28, align 8
  %30 = getelementptr inbounds nuw %struct.DecodedXLogRecord, ptr %29, i32 0, i32 5
  %31 = getelementptr inbounds nuw %struct.XLogRecord, ptr %30, i32 0, i32 1
  %32 = load i32, ptr %31, align 4
  %33 = load ptr, ptr %4, align 8
  %34 = getelementptr inbounds nuw %struct.XLogRecordBuffer, ptr %33, i32 0, i32 0
  %35 = load i64, ptr %34, align 8
  call void @ReorderBufferProcessXid(ptr noundef %24, i32 noundef %32, i64 noundef %35)
  %36 = load i8, ptr %6, align 1
  %37 = zext i8 %36 to i32
  switch i32 %37, label %69 [
    i32 0, label %38
    i32 144, label %38
    i32 16, label %82
    i32 96, label %43
    i32 32, label %68
    i32 48, label %68
    i32 64, label %68
    i32 80, label %68
    i32 112, label %68
    i32 128, label %68
    i32 160, label %68
    i32 176, label %68
    i32 208, label %68
    i32 224, label %68
  ]

38:                                               ; preds = %2, %2
  %39 = load ptr, ptr %5, align 8
  %40 = load ptr, ptr %4, align 8
  %41 = getelementptr inbounds nuw %struct.XLogRecordBuffer, ptr %40, i32 0, i32 0
  %42 = load i64, ptr %41, align 8
  call void @SnapBuildSerializationPoint(ptr noundef %39, i64 noundef %42)
  br label %82

43:                                               ; preds = %2
  call void @llvm.lifetime.start.p0(i64 8, ptr %7) #8
  %44 = load ptr, ptr %4, align 8
  %45 = getelementptr inbounds nuw %struct.XLogRecordBuffer, ptr %44, i32 0, i32 2
  %46 = load ptr, ptr %45, align 8
  %47 = getelementptr inbounds nuw %struct.XLogReaderState, ptr %46, i32 0, i32 11
  %48 = load ptr, ptr %47, align 8
  %49 = getelementptr inbounds nuw %struct.DecodedXLogRecord, ptr %48, i32 0, i32 8
  %50 = load ptr, ptr %49, align 8
  store ptr %50, ptr %7, align 8
  %51 = load ptr, ptr %7, align 8
  %52 = getelementptr inbounds nuw %struct.xl_parameter_change, ptr %51, i32 0, i32 5
  %53 = load i32, ptr %52, align 4
  %54 = icmp slt i32 %53, 2
  br i1 %54, label %55, label %67

55:                                               ; preds = %43
  br label %56

56:                                               ; preds = %55
  br i1 true, label %57, label %59

57:                                               ; preds = %56
  %58 = call zeroext i1 @errstart_cold(i32 noundef 21, ptr noundef null) #9
  br i1 %58, label %61, label %64

59:                                               ; preds = %56
  %60 = call zeroext i1 @errstart(i32 noundef 21, ptr noundef null)
  br i1 %60, label %61, label %64

61:                                               ; preds = %59, %57
  %62 = call i32 @errcode(i32 noundef 325)
  %63 = call i32 (ptr, ...) @errmsg(ptr noundef @.str)
  call void @errfinish(ptr noundef @.str.1, i32 noundef 177, ptr noundef @__func__.xlog_decode)
  br label %64

64:                                               ; preds = %61, %59, %57
  unreachable

65:                                               ; No predecessors!
  br label %66

66:                                               ; preds = %65
  br label %67

67:                                               ; preds = %66, %43
  call void @llvm.lifetime.end.p0(i64 8, ptr %7) #8
  br label %82

68:                                               ; preds = %2, %2, %2, %2, %2, %2, %2, %2, %2, %2
  br label %82

69:                                               ; preds = %2
  br label %70

70:                                               ; preds = %69
  br i1 true, label %71, label %73

71:                                               ; preds = %70
  %72 = call zeroext i1 @errstart_cold(i32 noundef 21, ptr noundef null) #9
  br i1 %72, label %75, label %79

73:                                               ; preds = %70
  %74 = call zeroext i1 @errstart(i32 noundef 21, ptr noundef null)
  br i1 %74, label %75, label %79

75:                                               ; preds = %73, %71
  %76 = load i8, ptr %6, align 1
  %77 = zext i8 %76 to i32
  %78 = call i32 (ptr, ...) @errmsg_internal(ptr noundef @.str.2, i32 noundef %77)
  call void @errfinish(ptr noundef @.str.1, i32 noundef 193, ptr noundef @__func__.xlog_decode)
  br label %79

79:                                               ; preds = %75, %73, %71
  unreachable

80:                                               ; No predecessors!
  br label %81

81:                                               ; preds = %80
  br label %82

82:                                               ; preds = %81, %68, %2, %67, %38
  call void @llvm.lifetime.end.p0(i64 1, ptr %6) #8
  call void @llvm.lifetime.end.p0(i64 8, ptr %5) #8
  ret void
}