; Function Attrs: nounwind uwtable
define dso_local void @xlog_decode(ptr noundef readonly captures(none) %0, ptr noundef readonly captures(none) %1) local_unnamed_addr #0 {
  %3 = getelementptr inbounds nuw i8, ptr %0, i64 32
  %4 = load ptr, ptr %3, align 8
  %5 = getelementptr inbounds nuw i8, ptr %1, i64 16
  %6 = load ptr, ptr %5, align 8
  %7 = getelementptr inbounds nuw i8, ptr %6, i64 104
  %8 = load ptr, ptr %7, align 8
  %9 = getelementptr inbounds nuw i8, ptr %8, i64 56
  %10 = load i8, ptr %9, align 8
  %11 = and i8 %10, -16
  %12 = getelementptr inbounds nuw i8, ptr %0, i64 24
  %13 = load ptr, ptr %12, align 8
  %14 = getelementptr inbounds nuw i8, ptr %8, i64 44
  %15 = load i32, ptr %14, align 4
  %16 = load i64, ptr %1, align 8
  tail call void @ReorderBufferProcessXid(ptr noundef %13, i32 noundef %15, i64 noundef %16) #7
  %17 = zext i8 %11 to i32
  %18 = lshr exact i32 %17, 4
  switch i32 %18, label %34 [
    i32 0, label %19
    i32 9, label %19
    i32 1, label %37
    i32 6, label %21
    i32 2, label %37
    i32 3, label %37
    i32 4, label %37
    i32 5, label %37
    i32 7, label %37
    i32 8, label %37
    i32 10, label %37
    i32 11, label %37
    i32 13, label %37
    i32 14, label %37
  ]

19:                                               ; preds = %2, %2
  %20 = load i64, ptr %1, align 8
  tail call void @SnapBuildSerializationPoint(ptr noundef %4, i64 noundef %20) #7
  br label %37

21:                                               ; preds = %2
  %22 = load ptr, ptr %5, align 8
  %23 = getelementptr inbounds nuw i8, ptr %22, i64 104
  %24 = load ptr, ptr %23, align 8
  %25 = getelementptr inbounds nuw i8, ptr %24, i64 72
  %26 = load ptr, ptr %25, align 8
  %27 = getelementptr inbounds nuw i8, ptr %26, i64 20
  %28 = load i32, ptr %27, align 4
  %29 = icmp slt i32 %28, 2
  br i1 %29, label %30, label %37

30:                                               ; preds = %21
  %31 = tail call zeroext i1 @errstart_cold(i32 noundef 21, ptr noundef null) #8
  tail call void @llvm.assume(i1 %31)
  %32 = tail call i32 @errcode(i32 noundef 325) #7
  %33 = tail call i32 (ptr, ...) @errmsg(ptr noundef nonnull @.str) #7
  tail call void @errfinish(ptr noundef nonnull @.str.1, i32 noundef 177, ptr noundef nonnull @__func__.xlog_decode) #7
  unreachable

34:                                               ; preds = %2
  %35 = tail call zeroext i1 @errstart_cold(i32 noundef 21, ptr noundef null) #8
  tail call void @llvm.assume(i1 %35)
  %36 = tail call i32 (ptr, ...) @errmsg_internal(ptr noundef nonnull @.str.2, i32 noundef %17) #7
  tail call void @errfinish(ptr noundef nonnull @.str.1, i32 noundef 193, ptr noundef nonnull @__func__.xlog_decode) #7
  unreachable

37:                                               ; preds = %21, %2, %2, %2, %2, %2, %2, %2, %2, %2, %2, %19, %2
  ret void
}